target datalayout = "e-m:e-p270:32:32-p271:32:32-p272:64:64-i64:64-i128:128-f80:128-n8:16:32:64-S128"
target triple = "x86_64-pc-linux-gnu"

%struct.Nwk_Obj_t_ = type { ptr, ptr, ptr, %union.anon, i32, i32, i32, i32, float, float, float, i32, i32, i32, ptr }
%union.anon = type { ptr }

; Function Attrs: inlinehint nounwind uwtable
define internal i32 @Nwk_ObjFaninNum(ptr noundef %0) #2 {
  %2 = alloca ptr, align 8
  store ptr %0, ptr %2, align 8, !tbaa !18
  %3 = load ptr, ptr %2, align 8, !tbaa !18
  %4 = getelementptr inbounds nuw %struct.Nwk_Obj_t_, ptr %3, i32 0, i32 11
  %5 = load i32, ptr %4, align 4, !tbaa !38
  ret i32 %5
}

; Function Attrs: inlinehint nounwind uwtable
define internal float @Nwk_ObjArrival(ptr noundef %0) #2 {
  %2 = alloca ptr, align 8
  store ptr %0, ptr %2, align 8, !tbaa !18
  %3 = load ptr, ptr %2, align 8, !tbaa !18
  %4 = getelementptr inbounds nuw %struct.Nwk_Obj_t_, ptr %3, i32 0, i32 8
  %5 = load float, ptr %4, align 8, !tbaa !25
  ret float %5
}

; Function Attrs: nounwind uwtable
define void @Nwk_ManDelayTraceSortPins(ptr noundef %0, ptr noundef %1, ptr noundef %2) #0 {
  %4 = alloca ptr, align 8
  %5 = alloca ptr, align 8
  %6 = alloca ptr, align 8
  %7 = alloca ptr, align 8
  %8 = alloca i32, align 4
  %9 = alloca i32, align 4
  %10 = alloca i32, align 4
  %11 = alloca i32, align 4
  store ptr %0, ptr %4, align 8, !tbaa !18
  store ptr %1, ptr %5, align 8, !tbaa !34
  store ptr %2, ptr %6, align 8, !tbaa !36
  call void @llvm.lifetime.start.p0(i64 8, ptr %7) #8
  call void @llvm.lifetime.start.p0(i64 4, ptr %8) #8
  call void @llvm.lifetime.start.p0(i64 4, ptr %9) #8
  call void @llvm.lifetime.start.p0(i64 4, ptr %10) #8
  call void @llvm.lifetime.start.p0(i64 4, ptr %11) #8
  store i32 0, ptr %8, align 4, !tbaa !8
  br label %12

12:                                               ; preds = %41, %3
  %13 = load i32, ptr %8, align 4, !tbaa !8
  %14 = load ptr, ptr %4, align 8, !tbaa !18
  %15 = getelementptr inbounds nuw %struct.Nwk_Obj_t_, ptr %14, i32 0, i32 11
  %16 = load i32, ptr %15, align 4, !tbaa !38
  %17 = icmp slt i32 %13, %16
  br i1 %17, label %18, label %27

18:                                               ; preds = %12
  %19 = load ptr, ptr %4, align 8, !tbaa !18
  %20 = getelementptr inbounds nuw %struct.Nwk_Obj_t_, ptr %19, i32 0, i32 14
  %21 = load ptr, ptr %20, align 8, !tbaa !39
  %22 = load i32, ptr %8, align 4, !tbaa !8
  %23 = sext i32 %22 to i64
  %24 = getelementptr inbounds ptr, ptr %21, i64 %23
  %25 = load ptr, ptr %24, align 8, !tbaa !18
  store ptr %25, ptr %7, align 8, !tbaa !18
  %26 = icmp ne ptr %25, null
  br label %27

27:                                               ; preds = %18, %12
  %28 = phi i1 [ false, %12 ], [ %26, %18 ]
  br i1 %28, label %29, label %44

29:                                               ; preds = %27
  %30 = load i32, ptr %8, align 4, !tbaa !8
  %31 = load ptr, ptr %5, align 8, !tbaa !34
  %32 = load i32, ptr %8, align 4, !tbaa !8
  %33 = sext i32 %32 to i64
  %34 = getelementptr inbounds i32, ptr %31, i64 %33
  store i32 %30, ptr %34, align 4, !tbaa !8
  %35 = load ptr, ptr %7, align 8, !tbaa !18
  %36 = call float @Nwk_ObjArrival(ptr noundef %35)
  %37 = load ptr, ptr %6, align 8, !tbaa !36
  %38 = load i32, ptr %8, align 4, !tbaa !8
  %39 = sext i32 %38 to i64
  %40 = getelementptr inbounds float, ptr %37, i64 %39
  store float %36, ptr %40, align 4, !tbaa !40
  br label %41

41:                                               ; preds = %29
  %42 = load i32, ptr %8, align 4, !tbaa !8
  %43 = add nsw i32 %42, 1
  store i32 %43, ptr %8, align 4, !tbaa !8
  br label %12, !llvm.loop !41

44:                                               ; preds = %27
  store i32 0, ptr %8, align 4, !tbaa !8
  br label %45

45:                                               ; preds = %111, %44
  %46 = load i32, ptr %8, align 4, !tbaa !8
  %47 = load ptr, ptr %4, align 8, !tbaa !18
  %48 = call i32 @Nwk_ObjFaninNum(ptr noundef %47)
  %49 = sub nsw i32 %48, 1
  %50 = icmp slt i32 %46, %49
  br i1 %50, label %51, label %114

51:                                               ; preds = %45
  %52 = load i32, ptr %8, align 4, !tbaa !8
  store i32 %52, ptr %10, align 4, !tbaa !8
  %53 = load i32, ptr %8, align 4, !tbaa !8
  %54 = add nsw i32 %53, 1
  store i32 %54, ptr %9, align 4, !tbaa !8
  br label %55

55:                                               ; preds = %83, %51
  %56 = load i32, ptr %9, align 4, !tbaa !8
  %57 = load ptr, ptr %4, align 8, !tbaa !18
  %58 = call i32 @Nwk_ObjFaninNum(ptr noundef %57)
  %59 = icmp slt i32 %56, %58
  br i1 %59, label %60, label %86

60:                                               ; preds = %55
  %61 = load ptr, ptr %6, align 8, !tbaa !36
  %62 = load ptr, ptr %5, align 8, !tbaa !34
  %63 = load i32, ptr %9, align 4, !tbaa !8
  %64 = sext i32 %63 to i64
  %65 = getelementptr inbounds i32, ptr %62, i64 %64
  %66 = load i32, ptr %65, align 4, !tbaa !8
  %67 = sext i32 %66 to i64
  %68 = getelementptr inbounds float, ptr %61, i64 %67
  %69 = load float, ptr %68, align 4, !tbaa !40
  %70 = load ptr, ptr %6, align 8, !tbaa !36
  %71 = load ptr, ptr %5, align 8, !tbaa !34
  %72 = load i32, ptr %10, align 4, !tbaa !8
  %73 = sext i32 %72 to i64
  %74 = getelementptr inbounds i32, ptr %71, i64 %73
  %75 = load i32, ptr %74, align 4, !tbaa !8
  %76 = sext i32 %75 to i64
  %77 = getelementptr inbounds float, ptr %70, i64 %76
  %78 = load float, ptr %77, align 4, !tbaa !40
  %79 = fcmp ogt float %69, %78
  br i1 %79, label %80, label %82

80:                                               ; preds = %60
  %81 = load i32, ptr %9, align 4, !tbaa !8
  store i32 %81, ptr %10, align 4, !tbaa !8
  br label %82

82:                                               ; preds = %80, %60
  br label %83

83:                                               ; preds = %82
  %84 = load i32, ptr %9, align 4, !tbaa !8
  %85 = add nsw i32 %84, 1
  store i32 %85, ptr %9, align 4, !tbaa !8
  br label %55, !llvm.loop !42

86:                                               ; preds = %55
  %87 = load i32, ptr %10, align 4, !tbaa !8
  %88 = load i32, ptr %8, align 4, !tbaa !8
  %89 = icmp eq i32 %87, %88
  br i1 %89, label %90, label %91

90:                                               ; preds = %86
  br label %111

91:                                               ; preds = %86
  %92 = load ptr, ptr %5, align 8, !tbaa !34
  %93 = load i32, ptr %8, align 4, !tbaa !8
  %94 = sext i32 %93 to i64
  %95 = getelementptr inbounds i32, ptr %92, i64 %94
  %96 = load i32, ptr %95, align 4, !tbaa !8
  store i32 %96, ptr %11, align 4, !tbaa !8
  %97 = load ptr, ptr %5, align 8, !tbaa !34
  %98 = load i32, ptr %10, align 4, !tbaa !8
  %99 = sext i32 %98 to i64
  %100 = getelementptr inbounds i32, ptr %97, i64 %99
  %101 = load i32, ptr %100, align 4, !tbaa !8
  %102 = load ptr, ptr %5, align 8, !tbaa !34
  %103 = load i32, ptr %8, align 4, !tbaa !8
  %104 = sext i32 %103 to i64
  %105 = getelementptr inbounds i32, ptr %102, i64 %104
  store i32 %101, ptr %105, align 4, !tbaa !8
  %106 = load i32, ptr %11, align 4, !tbaa !8
  %107 = load ptr, ptr %5, align 8, !tbaa !34
  %108 = load i32, ptr %10, align 4, !tbaa !8
  %109 = sext i32 %108 to i64
  %110 = getelementptr inbounds i32, ptr %107, i64 %109
  store i32 %106, ptr %110, align 4, !tbaa !8
  br label %111

111:                                              ; preds = %91, %90
  %112 = load i32, ptr %8, align 4, !tbaa !8
  %113 = add nsw i32 %112, 1
  store i32 %113, ptr %8, align 4, !tbaa !8
  br label %45, !llvm.loop !43

114:                                              ; preds = %45
  store i32 1, ptr %8, align 4, !tbaa !8
  br label %115

115:                                              ; preds = %121, %114
  %116 = load i32, ptr %8, align 4, !tbaa !8
  %117 = load ptr, ptr %4, align 8, !tbaa !18
  %118 = call i32 @Nwk_ObjFaninNum(ptr noundef %117)
  %119 = icmp slt i32 %116, %118
  br i1 %119, label %120, label %124

120:                                              ; preds = %115
  br label %121

121:                                              ; preds = %120
  %122 = load i32, ptr %8, align 4, !tbaa !8
  %123 = add nsw i32 %122, 1
  store i32 %123, ptr %8, align 4, !tbaa !8
  br label %115, !llvm.loop !44

124:                                              ; preds = %115
  call void @llvm.lifetime.end.p0(i64 4, ptr %11) #8
  call void @llvm.lifetime.end.p0(i64 4, ptr %10) #8
  call void @llvm.lifetime.end.p0(i64 4, ptr %9) #8
  call void @llvm.lifetime.end.p0(i64 4, ptr %8) #8
  call void @llvm.lifetime.end.p0(i64 8, ptr %7) #8
  ret void
}