; Function Attrs: nofree norecurse nosync nounwind memory(read, argmem: readwrite, inaccessiblemem: none) uwtable
define void @Nwk_ManDelayTraceSortPins(ptr noundef readonly captures(none) %0, ptr noundef captures(none) %1, ptr noundef captures(none) %2) local_unnamed_addr #2 {
  %4 = getelementptr inbounds nuw i8, ptr %0, i64 60
  %5 = load i32, ptr %4, align 4, !tbaa !29
  %6 = icmp sgt i32 %5, 0
  br i1 %6, label %.lr.ph, label %.preheader

.lr.ph:                                           ; preds = %3
  %7 = getelementptr inbounds nuw i8, ptr %0, i64 72
  %8 = load ptr, ptr %7, align 8, !tbaa !30
  %9 = load ptr, ptr %8, align 8, !tbaa !31
  %.not72 = icmp eq ptr %9, null
  br i1 %.not72, label %.critedge, label %.lr.ph74

10:                                               ; preds = %.lr.ph74
  %11 = getelementptr inbounds nuw ptr, ptr %8, i64 %indvars.iv.next
  %12 = load ptr, ptr %11, align 8, !tbaa !31
  %.not = icmp eq ptr %12, null
  br i1 %.not, label %.critedge, label %.lr.ph74, !llvm.loop !33

.lr.ph74:                                         ; preds = %.lr.ph, %10
  %13 = phi ptr [ %12, %10 ], [ %9, %.lr.ph ]
  %indvars.iv73 = phi i64 [ %indvars.iv.next, %10 ], [ 0, %.lr.ph ]
  %14 = getelementptr inbounds nuw i32, ptr %1, i64 %indvars.iv73
  %15 = trunc nuw nsw i64 %indvars.iv73 to i32
  store i32 %15, ptr %14, align 4, !tbaa !34
  %16 = getelementptr i8, ptr %13, i64 48
  %.val = load float, ptr %16, align 8, !tbaa !25
  %17 = getelementptr inbounds nuw float, ptr %2, i64 %indvars.iv73
  store float %.val, ptr %17, align 4, !tbaa !35
  %indvars.iv.next = add nuw nsw i64 %indvars.iv73, 1
  %18 = load i32, ptr %4, align 4, !tbaa !29
  %19 = sext i32 %18 to i64
  %20 = icmp slt i64 %indvars.iv.next, %19
  br i1 %20, label %10, label %.critedge, !llvm.loop !33

.critedge:                                        ; preds = %.lr.ph74, %10, %.lr.ph
  %.val4351 = phi i32 [ %5, %.lr.ph ], [ %18, %10 ], [ %18, %.lr.ph74 ]
  %21 = icmp sgt i32 %.val4351, 1
  br i1 %21, label %.lr.ph54, label %.preheader

.preheader:                                       ; preds = %46, %3, %.critedge
  ret void

.lr.ph54:                                         ; preds = %.critedge, %46
  %.val4369 = phi i32 [ %.val43, %46 ], [ %.val4351, %.critedge ]
  %indvars.iv63 = phi i64 [ %indvars.iv.next64, %46 ], [ 0, %.critedge ]
  %indvars.iv58 = phi i64 [ %indvars.iv.next59, %46 ], [ 1, %.critedge ]
  %indvars.iv.next64 = add nuw nsw i64 %indvars.iv63, 1
  %22 = sext i32 %.val4369 to i64
  %23 = icmp slt i64 %indvars.iv.next64, %22
  %24 = trunc nuw nsw i64 %indvars.iv63 to i32
  br i1 %23, label %.lr.ph50.preheader, label %._crit_edge

.lr.ph50.preheader:                               ; preds = %.lr.ph54
  %wide.trip.count = zext i32 %.val4369 to i64
  br label %.lr.ph50

.lr.ph50:                                         ; preds = %.lr.ph50.preheader, %.lr.ph50
  %indvars.iv60 = phi i64 [ %indvars.iv58, %.lr.ph50.preheader ], [ %indvars.iv.next61, %.lr.ph50 ]
  %.03949 = phi i32 [ %24, %.lr.ph50.preheader ], [ %.140, %.lr.ph50 ]
  %25 = getelementptr inbounds nuw i32, ptr %1, i64 %indvars.iv60
  %26 = load i32, ptr %25, align 4, !tbaa !34
  %27 = sext i32 %26 to i64
  %28 = getelementptr inbounds float, ptr %2, i64 %27
  %29 = load float, ptr %28, align 4, !tbaa !35
  %30 = sext i32 %.03949 to i64
  %31 = getelementptr inbounds i32, ptr %1, i64 %30
  %32 = load i32, ptr %31, align 4, !tbaa !34
  %33 = sext i32 %32 to i64
  %34 = getelementptr inbounds float, ptr %2, i64 %33
  %35 = load float, ptr %34, align 4, !tbaa !35
  %36 = fcmp ogt float %29, %35
  %37 = trunc nuw nsw i64 %indvars.iv60 to i32
  %.140 = select i1 %36, i32 %37, i32 %.03949
  %indvars.iv.next61 = add nuw nsw i64 %indvars.iv60, 1
  %exitcond.not = icmp eq i64 %indvars.iv.next61, %wide.trip.count
  br i1 %exitcond.not, label %._crit_edge, label %.lr.ph50, !llvm.loop !36

._crit_edge:                                      ; preds = %.lr.ph50, %.lr.ph54
  %.039.lcssa = phi i32 [ %24, %.lr.ph54 ], [ %.140, %.lr.ph50 ]
  %38 = zext i32 %.039.lcssa to i64
  %39 = icmp eq i64 %indvars.iv63, %38
  br i1 %39, label %46, label %40

40:                                               ; preds = %._crit_edge
  %41 = getelementptr inbounds nuw i32, ptr %1, i64 %indvars.iv63
  %42 = load i32, ptr %41, align 4, !tbaa !34
  %43 = sext i32 %.039.lcssa to i64
  %44 = getelementptr inbounds i32, ptr %1, i64 %43
  %45 = load i32, ptr %44, align 4, !tbaa !34
  store i32 %45, ptr %41, align 4, !tbaa !34
  store i32 %42, ptr %44, align 4, !tbaa !34
  %.val43.pre = load i32, ptr %4, align 4, !tbaa !29
  br label %46

46:                                               ; preds = %._crit_edge, %40
  %.val43 = phi i32 [ %.val4369, %._crit_edge ], [ %.val43.pre, %40 ]
  %47 = add nsw i32 %.val43, -1
  %48 = sext i32 %47 to i64
  %49 = icmp slt i64 %indvars.iv.next64, %48
  %indvars.iv.next59 = add nuw nsw i64 %indvars.iv58, 1
  br i1 %49, label %.lr.ph54, label %.preheader, !llvm.loop !37
}